target datalayout = "e-m:e-p270:32:32-p271:32:32-p272:64:64-i64:64-i128:128-f80:128-n8:16:32:64-S128"
target triple = "x86_64-pc-linux-gnu"

%struct.Vec_Int_t_ = type { i32, i32, ptr }
%struct.Bac_Ntk_t_ = type { ptr, i32, i32, i32, i32, i32, i32, %struct.Vec_Int_t_, %struct.Vec_Int_t_, %struct.Vec_Int_t_, %struct.Vec_Str_t_, %struct.Vec_Int_t_, %struct.Vec_Int_t_, %struct.Vec_Int_t_, %struct.Vec_Int_t_, %struct.Vec_Int_t_, %struct.Vec_Int_t_, %struct.Vec_Int_t_ }
%struct.Vec_Str_t_ = type { i32, i32, ptr }
%struct.Bac_Man_t_ = type { ptr, ptr, ptr, ptr, i32, i32, ptr, ptr, ptr, %struct.Vec_Int_t_, %struct.Vec_Int_t_, %struct.Vec_Int_t_, %struct.Vec_Int_t_, ptr, ptr, [4 x i32], [73 x ptr], [73 x ptr] }

@.str.2 = private unnamed_addr constant [7 x i8] c"%s%0*d\00", align 1
@.str.3 = private unnamed_addr constant [10 x i8] c"%s%0*d_%d\00", align 1

; Function Attrs: inlinehint nounwind uwtable
define internal void @Vec_IntWriteEntry(ptr noundef %0, i32 noundef %1, i32 noundef %2) #2 {
  %4 = alloca ptr, align 8
  %5 = alloca i32, align 4
  %6 = alloca i32, align 4
  store ptr %0, ptr %4, align 8, !tbaa !21
  store i32 %1, ptr %5, align 4, !tbaa !8
  store i32 %2, ptr %6, align 4, !tbaa !8
  %7 = load i32, ptr %6, align 4, !tbaa !8
  %8 = load ptr, ptr %4, align 8, !tbaa !21
  %9 = getelementptr inbounds nuw %struct.Vec_Int_t_, ptr %8, i32 0, i32 2
  %10 = load ptr, ptr %9, align 8, !tbaa !33
  %11 = load i32, ptr %5, align 4, !tbaa !8
  %12 = sext i32 %11 to i64
  %13 = getelementptr inbounds i32, ptr %10, i64 %12
  store i32 %7, ptr %13, align 4, !tbaa !8
  ret void
}

; Function Attrs: inlinehint nounwind uwtable
define internal i32 @Vec_IntEntry(ptr noundef %0, i32 noundef %1) #2 {
  %3 = alloca ptr, align 8
  %4 = alloca i32, align 4
  store ptr %0, ptr %3, align 8, !tbaa !21
  store i32 %1, ptr %4, align 4, !tbaa !8
  %5 = load ptr, ptr %3, align 8, !tbaa !21
  %6 = getelementptr inbounds nuw %struct.Vec_Int_t_, ptr %5, i32 0, i32 2
  %7 = load ptr, ptr %6, align 8, !tbaa !33
  %8 = load i32, ptr %4, align 4, !tbaa !8
  %9 = sext i32 %8 to i64
  %10 = getelementptr inbounds i32, ptr %7, i64 %9
  %11 = load i32, ptr %10, align 4, !tbaa !8
  ret i32 %11
}

; Function Attrs: nounwind uwtable
define i32 @Bac_ManAssignInternTwo(ptr noundef %0, i32 noundef %1, i32 noundef %2, ptr noundef %3, ptr noundef %4) #0 {
  %6 = alloca ptr, align 8
  %7 = alloca i32, align 4
  %8 = alloca i32, align 4
  %9 = alloca ptr, align 8
  %10 = alloca ptr, align 8
  %11 = alloca [16 x i8], align 16
  %12 = alloca i32, align 4
  %13 = alloca i32, align 4
  store ptr %0, ptr %6, align 8, !tbaa !19
  store i32 %1, ptr %7, align 4, !tbaa !8
  store i32 %2, ptr %8, align 4, !tbaa !8
  store ptr %3, ptr %9, align 8, !tbaa !13
  store ptr %4, ptr %10, align 8, !tbaa !21
  call void @llvm.lifetime.start.p0(i64 16, ptr %11) #10
  call void @llvm.lifetime.start.p0(i64 4, ptr %12) #10
  call void @llvm.lifetime.start.p0(i64 4, ptr %13) #10
  store i32 0, ptr %13, align 4, !tbaa !8
  store i32 0, ptr %12, align 4, !tbaa !8
  br label %14

14:                                               ; preds = %48, %5
  %15 = load i32, ptr %13, align 4, !tbaa !8
  %16 = icmp ne i32 %15, 0
  br i1 %16, label %17, label %22

17:                                               ; preds = %14
  %18 = load ptr, ptr %10, align 8, !tbaa !21
  %19 = load i32, ptr %13, align 4, !tbaa !8
  %20 = call i32 @Vec_IntEntry(ptr noundef %18, i32 noundef %19)
  %21 = icmp ne i32 %20, 0
  br label %22

22:                                               ; preds = %17, %14
  %23 = phi i1 [ true, %14 ], [ %21, %17 ]
  br i1 %23, label %24, label %51

24:                                               ; preds = %22
  %25 = load i32, ptr %12, align 4, !tbaa !8
  %26 = icmp eq i32 %25, 0
  br i1 %26, label %27, label %33

27:                                               ; preds = %24
  %28 = getelementptr inbounds [16 x i8], ptr %11, i64 0, i64 0
  %29 = load ptr, ptr %9, align 8, !tbaa !13
  %30 = load i32, ptr %8, align 4, !tbaa !8
  %31 = load i32, ptr %7, align 4, !tbaa !8
  %32 = call i32 (ptr, ptr, ...) @sprintf(ptr noundef %28, ptr noundef @.str.2, ptr noundef %29, i32 noundef %30, i32 noundef %31) #10
  br label %40

33:                                               ; preds = %24
  %34 = getelementptr inbounds [16 x i8], ptr %11, i64 0, i64 0
  %35 = load ptr, ptr %9, align 8, !tbaa !13
  %36 = load i32, ptr %8, align 4, !tbaa !8
  %37 = load i32, ptr %7, align 4, !tbaa !8
  %38 = load i32, ptr %12, align 4, !tbaa !8
  %39 = call i32 (ptr, ptr, ...) @sprintf(ptr noundef %34, ptr noundef @.str.3, ptr noundef %35, i32 noundef %36, i32 noundef %37, i32 noundef %38) #10
  br label %40

40:                                               ; preds = %33, %27
  %41 = load ptr, ptr %6, align 8, !tbaa !19
  %42 = getelementptr inbounds nuw %struct.Bac_Ntk_t_, ptr %41, i32 0, i32 0
  %43 = load ptr, ptr %42, align 8, !tbaa !23
  %44 = getelementptr inbounds nuw %struct.Bac_Man_t_, ptr %43, i32 0, i32 2
  %45 = load ptr, ptr %44, align 8, !tbaa !47
  %46 = getelementptr inbounds [16 x i8], ptr %11, i64 0, i64 0
  %47 = call i32 @Abc_NamStrFindOrAdd(ptr noundef %45, ptr noundef %46, ptr noundef null)
  store i32 %47, ptr %13, align 4, !tbaa !8
  br label %48

48:                                               ; preds = %40
  %49 = load i32, ptr %12, align 4, !tbaa !8
  %50 = add nsw i32 %49, 1
  store i32 %50, ptr %12, align 4, !tbaa !8
  br label %14, !llvm.loop !48

51:                                               ; preds = %22
  %52 = load ptr, ptr %10, align 8, !tbaa !21
  %53 = load i32, ptr %13, align 4, !tbaa !8
  call void @Vec_IntWriteEntry(ptr noundef %52, i32 noundef %53, i32 noundef 1)
  %54 = load i32, ptr %13, align 4, !tbaa !8
  call void @llvm.lifetime.end.p0(i64 4, ptr %13) #10
  call void @llvm.lifetime.end.p0(i64 4, ptr %12) #10
  call void @llvm.lifetime.end.p0(i64 16, ptr %11) #10
  ret i32 %54
}