; Function Attrs: nounwind uwtable
define range(i32 1, 0) i32 @Bac_ManAssignInternTwo(ptr noundef readonly captures(none) %0, i32 noundef %1, i32 noundef %2, ptr noundef %3, ptr noundef readonly captures(none) %4) local_unnamed_addr #6 {
  %6 = alloca [16 x i8], align 16
  call void @llvm.lifetime.start.p0(i64 16, ptr nonnull %6) #21
  %7 = getelementptr i8, ptr %4, i64 8
  br label %8

8:                                                ; preds = %18, %5
  %.015 = phi i32 [ 0, %5 ], [ %23, %18 ]
  %.0 = phi i32 [ 0, %5 ], [ %22, %18 ]
  %.not = icmp eq i32 %.0, 0
  br i1 %.not, label %.critedge, label %9

9:                                                ; preds = %8
  %.val = load ptr, ptr %7, align 8, !tbaa !23
  %10 = sext i32 %.0 to i64
  %11 = getelementptr inbounds i32, ptr %.val, i64 %10
  %12 = load i32, ptr %11, align 4, !tbaa !24
  %.not16 = icmp eq i32 %12, 0
  br i1 %.not16, label %24, label %.critedge

.critedge:                                        ; preds = %8, %9
  %13 = icmp eq i32 %.015, 0
  br i1 %13, label %14, label %16

14:                                               ; preds = %.critedge
  %15 = call i32 (ptr, ptr, ...) @sprintf(ptr noundef nonnull dereferenceable(1) %6, ptr noundef nonnull dereferenceable(1) @.str.2, ptr noundef %3, i32 noundef %2, i32 noundef %1) #21
  br label %18

16:                                               ; preds = %.critedge
  %17 = call i32 (ptr, ptr, ...) @sprintf(ptr noundef nonnull dereferenceable(1) %6, ptr noundef nonnull dereferenceable(1) @.str.3, ptr noundef %3, i32 noundef %2, i32 noundef %1, i32 noundef %.015) #21
  br label %18

18:                                               ; preds = %16, %14
  %19 = load ptr, ptr %0, align 8, !tbaa !16
  %20 = getelementptr inbounds nuw i8, ptr %19, i64 16
  %21 = load ptr, ptr %20, align 8, !tbaa !44
  %22 = call i32 @Abc_NamStrFindOrAdd(ptr noundef %21, ptr noundef nonnull %6, ptr noundef null) #21
  %23 = add nuw nsw i32 %.015, 1
  br label %8, !llvm.loop !45

24:                                               ; preds = %9
  %25 = getelementptr inbounds i32, ptr %.val, i64 %10
  store i32 1, ptr %25, align 4, !tbaa !24
  call void @llvm.lifetime.end.p0(i64 16, ptr nonnull %6) #21
  ret i32 %.0
}